target datalayout = "e-m:e-p270:32:32-p271:32:32-p272:64:64-i64:64-i128:128-f80:128-n8:16:32:64-S128"
target triple = "x86_64-pc-linux-gnu"

%struct.PropertyNameCtype = type { ptr, i32 }

; Function Attrs: nounwind uwtable
define internal i32 @property_name_to_ctype(ptr noundef %0, ptr noundef %1, ptr noundef %2) #0 {
  %4 = alloca i32, align 4
  %5 = alloca ptr, align 8
  %6 = alloca ptr, align 8
  %7 = alloca ptr, align 8
  %8 = alloca ptr, align 8
  %9 = alloca i32, align 4
  %10 = alloca [32 x i8], align 16
  %11 = alloca i32, align 4
  store ptr %0, ptr %5, align 8, !tbaa !19
  store ptr %1, ptr %6, align 8, !tbaa !4
  store ptr %2, ptr %7, align 8, !tbaa !4
  call void @llvm.lifetime.start.p0(i64 8, ptr %8) #4
  call void @llvm.lifetime.start.p0(i64 4, ptr %9) #4
  %12 = load ptr, ptr %7, align 8, !tbaa !4
  %13 = load ptr, ptr %6, align 8, !tbaa !4
  %14 = ptrtoint ptr %12 to i64
  %15 = ptrtoint ptr %13 to i64
  %16 = sub i64 %14, %15
  %17 = trunc i64 %16 to i32
  store i32 %17, ptr %9, align 4, !tbaa !10
  call void @llvm.lifetime.start.p0(i64 32, ptr %10) #4
  %18 = load i32, ptr %9, align 4, !tbaa !10
  %19 = sext i32 %18 to i64
  %20 = icmp ult i64 %19, 31
  br i1 %20, label %21, label %40

21:                                               ; preds = %3
  %22 = getelementptr inbounds [32 x i8], ptr %10, i64 0, i64 0
  %23 = load ptr, ptr %6, align 8, !tbaa !4
  %24 = load i32, ptr %9, align 4, !tbaa !10
  %25 = sext i32 %24 to i64
  call void @llvm.memcpy.p0.p0.i64(ptr align 16 %22, ptr align 1 %23, i64 %25, i1 false)
  %26 = load i32, ptr %9, align 4, !tbaa !10
  %27 = sext i32 %26 to i64
  %28 = getelementptr inbounds [32 x i8], ptr %10, i64 0, i64 %27
  store i8 0, ptr %28, align 1, !tbaa !9
  %29 = getelementptr inbounds [32 x i8], ptr %10, i64 0, i64 0
  %30 = load i32, ptr %9, align 4, !tbaa !10
  %31 = sext i32 %30 to i64
  %32 = call ptr @onigenc_sjis_lookup_property_name(ptr noundef %29, i64 noundef %31)
  store ptr %32, ptr %8, align 8, !tbaa !21
  %33 = load ptr, ptr %8, align 8, !tbaa !21
  %34 = icmp ne ptr %33, null
  br i1 %34, label %35, label %39

35:                                               ; preds = %21
  %36 = load ptr, ptr %8, align 8, !tbaa !21
  %37 = getelementptr inbounds nuw %struct.PropertyNameCtype, ptr %36, i32 0, i32 1
  %38 = load i32, ptr %37, align 8, !tbaa !23
  store i32 %38, ptr %4, align 4
  store i32 1, ptr %11, align 4
  br label %41

39:                                               ; preds = %21
  br label %40

40:                                               ; preds = %39, %3
  store i32 -223, ptr %4, align 4
  store i32 1, ptr %11, align 4
  br label %41

41:                                               ; preds = %40, %35
  call void @llvm.lifetime.end.p0(i64 32, ptr %10) #4
  call void @llvm.lifetime.end.p0(i64 4, ptr %9) #4
  call void @llvm.lifetime.end.p0(i64 8, ptr %8) #4
  %42 = load i32, ptr %4, align 4
  ret i32 %42
}