; Function Attrs: nounwind uwtable
define internal i32 @property_name_to_ctype(ptr readnone captures(none) %0, ptr noundef %1, ptr noundef %2) #2 {
  %4 = alloca [32 x i8], align 16
  %5 = ptrtoint ptr %2 to i64
  %6 = ptrtoint ptr %1 to i64
  %7 = sub i64 %5, %6
  call void @llvm.lifetime.start.p0(i64 32, ptr nonnull %4) #8
  %sext = shl i64 %7, 32
  %8 = ashr exact i64 %sext, 32
  %9 = icmp ult i64 %8, 31
  br i1 %9, label %10, label %16

10:                                               ; preds = %3
  call void @llvm.memcpy.p0.p0.i64(ptr nonnull align 16 %4, ptr align 1 %1, i64 %8, i1 false)
  %11 = getelementptr inbounds nuw [32 x i8], ptr %4, i64 0, i64 %8
  store i8 0, ptr %11, align 1, !tbaa !4
  %12 = call ptr @onigenc_sjis_lookup_property_name(ptr noundef nonnull %4, i64 noundef %8) #8
  %.not = icmp eq ptr %12, null
  br i1 %.not, label %16, label %13

13:                                               ; preds = %10
  %14 = getelementptr inbounds nuw i8, ptr %12, i64 8
  %15 = load i32, ptr %14, align 8, !tbaa !17
  br label %16

16:                                               ; preds = %3, %10, %13
  %.0 = phi i32 [ %15, %13 ], [ -223, %10 ], [ -223, %3 ]
  call void @llvm.lifetime.end.p0(i64 32, ptr nonnull %4) #8
  ret i32 %.0
}